ctraits.traits
__newobj__
p0
(cglimpse.models.ml.param
Params
p1
tp2
Rp3
(dp4
S'num_scales'
p5
I9
sS'__traits_version__'
p6
S'4.4.0'
p7
sS'image_resize_aspect_ratio'
p8
F1.0
sS's2_operation'
p9
S'NormRbf'
p10
sS's1_num_phases'
p11
I2
sS's1_kwidth'
p12
I11
sS's1_bias'
p13
F0.01
sS'c1_sampling'
p14
I5
sS's1_operation'
p15
S'NormDotProduct'
p16
sS'retina_bias'
p17
F1.0
sS's2_kwidth'
p18
ccopy_reg
_reconstructor
p19
(ctraits.trait_handlers
TraitListObject
p20
c__builtin__
list
p21
(lp22
I7
atp23
Rp24
(dp25
S'name_items'
p26
S's2_kwidth_items'
p27
sS'name'
p28
g18
sbsS'image_resize_method'
p29
S'scale short edge'
p30
sS's2_sampling'
p31
I1
sS'scale_factor'
p32
F1.189207115002721
sS'image_resize_length'
p33
I220
sS'c1_kwidth'
p34
I11
sS'retina_kwidth'
p35
I15
sS's2_bias'
p36
F0.1
sS's1_beta'
p37
F1.0
sS's2_center'
p38
I00
sS'retina_enabled'
p39
I00
sS's2_beta'
p40
F5.0
sS'c1_whiten'
p41
I01
sS's1_shift_orientations'
p42
I00
sS'operation_type'
p43
S'valid'
p44
sS's1_sampling'
p45
I1
sS's1_num_orientations'
p46
I4
sb.