(lp0
(lp1
F0.7391304347826086
aF0.29411764705882354
aF0.2631578947368421
aa(lp2
F0.043478260869565216
aF0.5294117647058824
aF0.05263157894736842
aa(lp3
F0.21739130434782608
aF0.17647058823529413
aF0.6842105263157895
aa.