(lp0
(lp1
F0.6428571428571429
aF0.28169014084507044
aF0.36363636363636365
aa(lp2
F0.03571428571428571
aF0.5211267605633803
aF0.0
aa(lp3
F0.32142857142857145
aF0.19718309859154928
aF0.6363636363636364
aa.