(lp0
(lp1
F0.6538461538461539
aF0.27419354838709675
aF0.36363636363636365
aa(lp2
F0.038461538461538464
aF0.5483870967741935
aF0.13636363636363635
aa(lp3
F0.3076923076923077
aF0.1774193548387097
aF0.5
aa.