(lp0
(lp1
F0.7037037037037037
aF0.2857142857142857
aF0.23076923076923078
aa(lp2
F0.037037037037037035
aF0.5285714285714286
aF0.0
aa(lp3
F0.25925925925925924
aF0.18571428571428572
aF0.7692307692307693
aa.